target datalayout = "e-m:e-p270:32:32-p271:32:32-p272:64:64-i64:64-i128:128-f80:128-n8:16:32:64-S128"
target triple = "x86_64-pc-linux-gnu"

%struct._zend_executor_globals = type { %struct._zval_struct, %struct._zval_struct, [32 x ptr], ptr, ptr, %struct._zend_array, %struct._zend_array, ptr, i32, i8, %struct._zval_struct, i32, ptr, ptr, ptr, ptr, ptr, ptr, i64, ptr, ptr, i32, ptr, i32, i64, i32, i32, i32, i8, i8, %struct.zend_atomic_bool_s, %struct.zend_atomic_bool_s, ptr, i64, ptr, ptr, %struct._zend_array, %struct._zend_array, i32, i8, %struct._zval_struct, %struct._zval_struct, %struct._zend_stack, %struct._zend_stack, %struct._zend_stack, ptr, i32, i32, i64, ptr, ptr, ptr, %struct._zend_objects_store, %struct._zend_lazy_objects_store, ptr, ptr, ptr, [3 x %struct._zend_op], ptr, i8, i8, i64, i32, i32, ptr, [16 x %struct._HashTableIterator], ptr, %union._zend_function, %struct._zend_op, %struct._zend_array, i64, %struct.zend_get_gc_buffer, ptr, ptr, ptr, i64, i8, i32, ptr, ptr, i64, %struct._zend_call_stack, i64, i64, %struct._zend_strtod_state, [6 x ptr] }
%struct.zend_atomic_bool_s = type { i8 }
%struct._zval_struct = type { %union._zend_value, %union.anon.9, %union.anon.12 }
%union._zend_value = type { i64 }
%union.anon.9 = type { i32 }
%union.anon.12 = type { i32 }
%struct._zend_stack = type { i32, i32, i32, ptr }
%struct._zend_objects_store = type { ptr, i32, i32, i32 }
%struct._zend_lazy_objects_store = type { %struct._zend_array }
%struct._HashTableIterator = type { ptr, i32, i32 }
%union._zend_function = type { %struct._zend_op_array }
%struct._zend_op_array = type { i8, [3 x i8], i32, ptr, ptr, ptr, i32, i32, ptr, ptr, ptr, ptr, i32, ptr, i32, i32, i32, ptr, ptr, ptr, ptr, ptr, i32, i32, ptr, ptr, ptr, i32, i32, i32, i32, ptr, ptr, [6 x ptr] }
%struct._zend_op = type { ptr, %union._znode_op, %union._znode_op, %union._znode_op, i32, i32, i8, i8, i8, i8 }
%union._znode_op = type { i32 }
%struct._zend_array = type { %struct._zend_refcounted_h, %union.anon.1, i32, %union.anon.2, i32, i32, i32, i32, i64, ptr }
%struct._zend_refcounted_h = type { i32, %union.anon.0 }
%union.anon.0 = type { i32 }
%union.anon.1 = type { i32 }
%union.anon.2 = type { ptr }
%struct.zend_get_gc_buffer = type { ptr, ptr, ptr }
%struct._zend_call_stack = type { ptr, i64 }
%struct._zend_strtod_state = type { [8 x ptr], ptr, ptr }
%struct.reflection_object = type { %struct._zval_struct, ptr, ptr, i32, %struct._zend_object }
%struct._zend_object = type { %struct._zend_refcounted_h, i32, i32, ptr, ptr, ptr, [1 x %struct._zval_struct] }
%struct._zend_string = type { %struct._zend_refcounted_h, i64, i64, [1 x i8] }
%struct._zend_execute_data = type { ptr, ptr, ptr, ptr, %struct._zval_struct, ptr, ptr, ptr, ptr }
%struct._zend_internal_function = type { i8, [3 x i8], i32, ptr, ptr, ptr, i32, i32, ptr, ptr, ptr, ptr, i32, ptr, ptr, ptr, ptr, [6 x ptr] }

@reflection_exception_ptr = dso_local global ptr null, align 8
@executor_globals = external global %struct._zend_executor_globals, align 8
@.str.10 = private unnamed_addr constant [57 x i8] c"Internal error: Failed to retrieve the reflection object\00", align 1

; Function Attrs: alwaysinline nounwind uwtable
define internal i32 @zend_gc_addref(ptr noundef %0) #4 {
  %2 = alloca ptr, align 8
  store ptr %0, ptr %2, align 8, !tbaa !44
  br label %3

3:                                                ; preds = %1
  br label %4

4:                                                ; preds = %3
  %5 = load ptr, ptr %2, align 8, !tbaa !44
  %6 = getelementptr inbounds nuw %struct._zend_refcounted_h, ptr %5, i32 0, i32 0
  %7 = load i32, ptr %6, align 4, !tbaa !46
  %8 = add i32 %7, 1
  store i32 %8, ptr %6, align 4, !tbaa !46
  ret i32 %8
}

; Function Attrs: alwaysinline nounwind uwtable
define internal i32 @zval_gc_flags(i32 noundef %0) #4 {
  %2 = alloca i32, align 4
  store i32 %0, ptr %2, align 4, !tbaa !43
  %3 = load i32, ptr %2, align 4, !tbaa !43
  %4 = lshr i32 %3, 0
  %5 = and i32 %4, 1008
  ret i32 %5
}

; Function Attrs: inlinehint nounwind uwtable
define internal ptr @reflection_object_from_obj(ptr noundef %0) #3 {
  %2 = alloca ptr, align 8
  store ptr %0, ptr %2, align 8, !tbaa !39
  %3 = load ptr, ptr %2, align 8, !tbaa !39
  %4 = getelementptr inbounds i8, ptr %3, i64 -40
  ret ptr %4
}

; Function Attrs: nounwind uwtable
define hidden void @zim_ReflectionFunctionAbstract_getDocComment(ptr noundef %0, ptr noundef %1) #0 {
  %3 = alloca ptr, align 8
  %4 = alloca ptr, align 8
  %5 = alloca ptr, align 8
  %6 = alloca ptr, align 8
  %7 = alloca i32, align 4
  %8 = alloca ptr, align 8
  %9 = alloca ptr, align 8
  %10 = alloca ptr, align 8
  %11 = alloca ptr, align 8
  store ptr %0, ptr %3, align 8, !tbaa !47
  store ptr %1, ptr %4, align 8, !tbaa !9
  call void @llvm.lifetime.start.p0(i64 8, ptr %5) #14
  call void @llvm.lifetime.start.p0(i64 8, ptr %6) #14
  br label %12

12:                                               ; preds = %2
  %13 = load ptr, ptr %3, align 8, !tbaa !47
  %14 = getelementptr inbounds nuw %struct._zend_execute_data, ptr %13, i32 0, i32 4
  %15 = getelementptr inbounds nuw %struct._zval_struct, ptr %14, i32 0, i32 2
  %16 = load i32, ptr %15, align 4, !tbaa !29
  %17 = icmp ne i32 %16, 0
  %18 = xor i1 %17, true
  %19 = xor i1 %18, true
  %20 = zext i1 %19 to i32
  %21 = sext i32 %20 to i64
  %22 = call i64 @llvm.expect.i64(i64 %21, i64 0)
  %23 = icmp ne i64 %22, 0
  br i1 %23, label %24, label %25

24:                                               ; preds = %12
  call void @zend_wrong_parameters_none_error()
  store i32 1, ptr %7, align 4
  br label %158

25:                                               ; preds = %12
  br label %26

26:                                               ; preds = %25
  br label %27

27:                                               ; preds = %26
  br label %28

28:                                               ; preds = %27
  br label %29

29:                                               ; preds = %28
  %30 = load ptr, ptr %3, align 8, !tbaa !47
  %31 = getelementptr inbounds nuw %struct._zend_execute_data, ptr %30, i32 0, i32 4
  %32 = getelementptr inbounds nuw %struct._zval_struct, ptr %31, i32 0, i32 0
  %33 = load ptr, ptr %32, align 8, !tbaa !29
  %34 = call ptr @reflection_object_from_obj(ptr noundef %33)
  store ptr %34, ptr %5, align 8, !tbaa !30
  %35 = load ptr, ptr %5, align 8, !tbaa !30
  %36 = getelementptr inbounds nuw %struct.reflection_object, ptr %35, i32 0, i32 1
  %37 = load ptr, ptr %36, align 8, !tbaa !31
  %38 = icmp eq ptr %37, null
  br i1 %38, label %39, label %60

39:                                               ; preds = %29
  %40 = load ptr, ptr getelementptr inbounds nuw (%struct._zend_executor_globals, ptr @executor_globals, i32 0, i32 54), align 8, !tbaa !49
  %41 = icmp ne ptr %40, null
  br i1 %41, label %42, label %54

42:                                               ; preds = %39
  %43 = load ptr, ptr getelementptr inbounds nuw (%struct._zend_executor_globals, ptr @executor_globals, i32 0, i32 54), align 8, !tbaa !49
  %44 = getelementptr inbounds nuw %struct._zend_object, ptr %43, i32 0, i32 3
  %45 = load ptr, ptr %44, align 8, !tbaa !41
  %46 = load ptr, ptr @reflection_exception_ptr, align 8, !tbaa !4
  %47 = icmp eq ptr %45, %46
  br i1 %47, label %48, label %54

48:                                               ; preds = %42
  br label %49

49:                                               ; preds = %48
  %50 = load ptr, ptr getelementptr inbounds nuw (%struct._zend_executor_globals, ptr @executor_globals, i32 0, i32 54), align 8, !tbaa !49
  %51 = icmp ne ptr %50, null
  call void @llvm.assume(i1 %51)
  store i32 1, ptr %7, align 4
  br label %158

52:                                               ; No predecessors!
  br label %53

53:                                               ; preds = %52
  br label %54

54:                                               ; preds = %53, %42, %39
  call void (ptr, ptr, ...) @zend_throw_error(ptr noundef null, ptr noundef @.str.10)
  br label %55

55:                                               ; preds = %54
  %56 = load ptr, ptr getelementptr inbounds nuw (%struct._zend_executor_globals, ptr @executor_globals, i32 0, i32 54), align 8, !tbaa !49
  %57 = icmp ne ptr %56, null
  call void @llvm.assume(i1 %57)
  store i32 1, ptr %7, align 4
  br label %158

58:                                               ; No predecessors!
  br label %59

59:                                               ; preds = %58
  br label %60

60:                                               ; preds = %59, %29
  br label %61

61:                                               ; preds = %60
  br label %62

62:                                               ; preds = %61
  %63 = load ptr, ptr %5, align 8, !tbaa !30
  %64 = getelementptr inbounds nuw %struct.reflection_object, ptr %63, i32 0, i32 1
  %65 = load ptr, ptr %64, align 8, !tbaa !31
  store ptr %65, ptr %6, align 8, !tbaa !81
  br label %66

66:                                               ; preds = %62
  br label %67

67:                                               ; preds = %66
  %68 = load ptr, ptr %6, align 8, !tbaa !81
  %69 = load i8, ptr %68, align 8, !tbaa !29
  %70 = zext i8 %69 to i32
  %71 = icmp eq i32 %70, 2
  br i1 %71, label %72, label %108

72:                                               ; preds = %67
  %73 = load ptr, ptr %6, align 8, !tbaa !81
  %74 = getelementptr inbounds nuw %struct._zend_op_array, ptr %73, i32 0, i32 11
  %75 = load ptr, ptr %74, align 8, !tbaa !29
  %76 = icmp ne ptr %75, null
  br i1 %76, label %77, label %108

77:                                               ; preds = %72
  br label %78

78:                                               ; preds = %77
  br label %79

79:                                               ; preds = %78
  call void @llvm.lifetime.start.p0(i64 8, ptr %8) #14
  %80 = load ptr, ptr %4, align 8, !tbaa !9
  store ptr %80, ptr %8, align 8, !tbaa !9
  call void @llvm.lifetime.start.p0(i64 8, ptr %9) #14
  %81 = load ptr, ptr %6, align 8, !tbaa !81
  %82 = getelementptr inbounds nuw %struct._zend_op_array, ptr %81, i32 0, i32 11
  %83 = load ptr, ptr %82, align 8, !tbaa !29
  store ptr %83, ptr %9, align 8, !tbaa !38
  %84 = load ptr, ptr %9, align 8, !tbaa !38
  %85 = load ptr, ptr %8, align 8, !tbaa !9
  %86 = getelementptr inbounds nuw %struct._zval_struct, ptr %85, i32 0, i32 0
  store ptr %84, ptr %86, align 8, !tbaa !29
  %87 = load ptr, ptr %9, align 8, !tbaa !38
  %88 = getelementptr inbounds nuw %struct._zend_string, ptr %87, i32 0, i32 0
  %89 = getelementptr inbounds nuw %struct._zend_refcounted_h, ptr %88, i32 0, i32 1
  %90 = load i32, ptr %89, align 4, !tbaa !29
  %91 = call i32 @zval_gc_flags(i32 noundef %90)
  %92 = and i32 %91, 64
  %93 = icmp ne i32 %92, 0
  br i1 %93, label %94, label %97

94:                                               ; preds = %79
  %95 = load ptr, ptr %8, align 8, !tbaa !9
  %96 = getelementptr inbounds nuw %struct._zval_struct, ptr %95, i32 0, i32 1
  store i32 6, ptr %96, align 8, !tbaa !29
  br label %103

97:                                               ; preds = %79
  %98 = load ptr, ptr %9, align 8, !tbaa !38
  %99 = getelementptr inbounds nuw %struct._zend_string, ptr %98, i32 0, i32 0
  %100 = call i32 @zend_gc_addref(ptr noundef %99)
  %101 = load ptr, ptr %8, align 8, !tbaa !9
  %102 = getelementptr inbounds nuw %struct._zval_struct, ptr %101, i32 0, i32 1
  store i32 262, ptr %102, align 8, !tbaa !29
  br label %103

103:                                              ; preds = %97, %94
  call void @llvm.lifetime.end.p0(i64 8, ptr %9) #14
  call void @llvm.lifetime.end.p0(i64 8, ptr %8) #14
  br label %104

104:                                              ; preds = %103
  br label %105

105:                                              ; preds = %104
  store i32 1, ptr %7, align 4
  br label %158

106:                                              ; No predecessors!
  br label %107

107:                                              ; preds = %106
  br label %108

108:                                              ; preds = %107, %72, %67
  %109 = load ptr, ptr %6, align 8, !tbaa !81
  %110 = load i8, ptr %109, align 8, !tbaa !29
  %111 = zext i8 %110 to i32
  %112 = icmp eq i32 %111, 1
  br i1 %112, label %113, label %149

113:                                              ; preds = %108
  %114 = load ptr, ptr %6, align 8, !tbaa !81
  %115 = getelementptr inbounds nuw %struct._zend_internal_function, ptr %114, i32 0, i32 11
  %116 = load ptr, ptr %115, align 8, !tbaa !135
  %117 = icmp ne ptr %116, null
  br i1 %117, label %118, label %149

118:                                              ; preds = %113
  br label %119

119:                                              ; preds = %118
  br label %120

120:                                              ; preds = %119
  call void @llvm.lifetime.start.p0(i64 8, ptr %10) #14
  %121 = load ptr, ptr %4, align 8, !tbaa !9
  store ptr %121, ptr %10, align 8, !tbaa !9
  call void @llvm.lifetime.start.p0(i64 8, ptr %11) #14
  %122 = load ptr, ptr %6, align 8, !tbaa !81
  %123 = getelementptr inbounds nuw %struct._zend_internal_function, ptr %122, i32 0, i32 11
  %124 = load ptr, ptr %123, align 8, !tbaa !135
  store ptr %124, ptr %11, align 8, !tbaa !38
  %125 = load ptr, ptr %11, align 8, !tbaa !38
  %126 = load ptr, ptr %10, align 8, !tbaa !9
  %127 = getelementptr inbounds nuw %struct._zval_struct, ptr %126, i32 0, i32 0
  store ptr %125, ptr %127, align 8, !tbaa !29
  %128 = load ptr, ptr %11, align 8, !tbaa !38
  %129 = getelementptr inbounds nuw %struct._zend_string, ptr %128, i32 0, i32 0
  %130 = getelementptr inbounds nuw %struct._zend_refcounted_h, ptr %129, i32 0, i32 1
  %131 = load i32, ptr %130, align 4, !tbaa !29
  %132 = call i32 @zval_gc_flags(i32 noundef %131)
  %133 = and i32 %132, 64
  %134 = icmp ne i32 %133, 0
  br i1 %134, label %135, label %138

135:                                              ; preds = %120
  %136 = load ptr, ptr %10, align 8, !tbaa !9
  %137 = getelementptr inbounds nuw %struct._zval_struct, ptr %136, i32 0, i32 1
  store i32 6, ptr %137, align 8, !tbaa !29
  br label %144

138:                                              ; preds = %120
  %139 = load ptr, ptr %11, align 8, !tbaa !38
  %140 = getelementptr inbounds nuw %struct._zend_string, ptr %139, i32 0, i32 0
  %141 = call i32 @zend_gc_addref(ptr noundef %140)
  %142 = load ptr, ptr %10, align 8, !tbaa !9
  %143 = getelementptr inbounds nuw %struct._zval_struct, ptr %142, i32 0, i32 1
  store i32 262, ptr %143, align 8, !tbaa !29
  br label %144

144:                                              ; preds = %138, %135
  call void @llvm.lifetime.end.p0(i64 8, ptr %11) #14
  call void @llvm.lifetime.end.p0(i64 8, ptr %10) #14
  br label %145

145:                                              ; preds = %144
  br label %146

146:                                              ; preds = %145
  store i32 1, ptr %7, align 4
  br label %158

147:                                              ; No predecessors!
  br label %148

148:                                              ; preds = %147
  br label %149

149:                                              ; preds = %148, %113, %108
  br label %150

150:                                              ; preds = %149
  br label %151

151:                                              ; preds = %150
  %152 = load ptr, ptr %4, align 8, !tbaa !9
  %153 = getelementptr inbounds nuw %struct._zval_struct, ptr %152, i32 0, i32 1
  store i32 2, ptr %153, align 8, !tbaa !29
  br label %154

154:                                              ; preds = %151
  br label %155

155:                                              ; preds = %154
  store i32 1, ptr %7, align 4
  br label %158

156:                                              ; No predecessors!
  br label %157

157:                                              ; preds = %156
  store i32 0, ptr %7, align 4
  br label %158

158:                                              ; preds = %157, %155, %146, %105, %55, %49, %24
  call void @llvm.lifetime.end.p0(i64 8, ptr %6) #14
  call void @llvm.lifetime.end.p0(i64 8, ptr %5) #14
  %159 = load i32, ptr %7, align 4
  switch i32 %159, label %161 [
    i32 0, label %160
    i32 1, label %160
  ]

160:                                              ; preds = %158, %158
  ret void

161:                                              ; preds = %158
  unreachable
}