; Function Attrs: nounwind uwtable
define hidden void @zim_ReflectionFunctionAbstract_getDocComment(ptr noundef readonly captures(none) %0, ptr noundef writeonly captures(none) %1) #0 {
  %3 = getelementptr inbounds nuw i8, ptr %0, i64 44
  %4 = load i32, ptr %3, align 4, !tbaa !26
  %.not = icmp eq i32 %4, 0
  br i1 %.not, label %6, label %5, !prof !70

5:                                                ; preds = %2
  tail call void @zend_wrong_parameters_none_error() #13
  br label %51

6:                                                ; preds = %2
  %7 = getelementptr inbounds nuw i8, ptr %0, i64 32
  %8 = load ptr, ptr %7, align 8, !tbaa !26
  %9 = getelementptr inbounds i8, ptr %8, i64 -24
  %10 = load ptr, ptr %9, align 8, !tbaa !27
  %11 = icmp eq ptr %10, null
  br i1 %11, label %12, label %22

12:                                               ; preds = %6
  %13 = load ptr, ptr getelementptr inbounds nuw (i8, ptr @executor_globals, i64 960), align 8, !tbaa !39
  %.not32 = icmp eq ptr %13, null
  br i1 %.not32, label %19, label %14

14:                                               ; preds = %12
  %15 = getelementptr inbounds nuw i8, ptr %13, i64 16
  %16 = load ptr, ptr %15, align 8, !tbaa !34
  %17 = load ptr, ptr @reflection_exception_ptr, align 8, !tbaa !38
  %18 = icmp eq ptr %16, %17
  br i1 %18, label %51, label %19

19:                                               ; preds = %14, %12
  tail call void (ptr, ptr, ...) @zend_throw_error(ptr noundef null, ptr noundef nonnull @.str.10) #13
  %20 = load ptr, ptr getelementptr inbounds nuw (i8, ptr @executor_globals, i64 960), align 8, !tbaa !39
  %21 = icmp ne ptr %20, null
  tail call void @llvm.assume(i1 %21)
  br label %51

22:                                               ; preds = %6
  %23 = load i8, ptr %10, align 8, !tbaa !26
  switch i8 %23, label %.thread [
    i8 2, label %24
    i8 1, label %37
  ]

24:                                               ; preds = %22
  %25 = getelementptr inbounds nuw i8, ptr %10, i64 64
  %26 = load ptr, ptr %25, align 8, !tbaa !26
  %.not28 = icmp eq ptr %26, null
  br i1 %.not28, label %.thread, label %27

27:                                               ; preds = %24
  store ptr %26, ptr %1, align 8, !tbaa !26
  %28 = getelementptr inbounds nuw i8, ptr %26, i64 4
  %29 = load i32, ptr %28, align 4, !tbaa !26
  %30 = and i32 %29, 64
  %.not31 = icmp eq i32 %30, 0
  br i1 %.not31, label %33, label %31

31:                                               ; preds = %27
  %32 = getelementptr inbounds nuw i8, ptr %1, i64 8
  store i32 6, ptr %32, align 8, !tbaa !26
  br label %51

33:                                               ; preds = %27
  %34 = load i32, ptr %26, align 4, !tbaa !37
  %35 = add i32 %34, 1
  store i32 %35, ptr %26, align 4, !tbaa !37
  %36 = getelementptr inbounds nuw i8, ptr %1, i64 8
  store i32 262, ptr %36, align 8, !tbaa !26
  br label %51

37:                                               ; preds = %22
  %38 = getelementptr inbounds nuw i8, ptr %10, i64 64
  %39 = load ptr, ptr %38, align 8, !tbaa !129
  %.not29 = icmp eq ptr %39, null
  br i1 %.not29, label %.thread, label %40

40:                                               ; preds = %37
  store ptr %39, ptr %1, align 8, !tbaa !26
  %41 = getelementptr inbounds nuw i8, ptr %39, i64 4
  %42 = load i32, ptr %41, align 4, !tbaa !26
  %43 = and i32 %42, 64
  %.not30 = icmp eq i32 %43, 0
  br i1 %.not30, label %46, label %44

44:                                               ; preds = %40
  %45 = getelementptr inbounds nuw i8, ptr %1, i64 8
  store i32 6, ptr %45, align 8, !tbaa !26
  br label %51

46:                                               ; preds = %40
  %47 = load i32, ptr %39, align 4, !tbaa !37
  %48 = add i32 %47, 1
  store i32 %48, ptr %39, align 4, !tbaa !37
  %49 = getelementptr inbounds nuw i8, ptr %1, i64 8
  store i32 262, ptr %49, align 8, !tbaa !26
  br label %51

.thread:                                          ; preds = %22, %24, %37
  %50 = getelementptr inbounds nuw i8, ptr %1, i64 8
  store i32 2, ptr %50, align 8, !tbaa !26
  br label %51

51:                                               ; preds = %44, %46, %31, %33, %14, %.thread, %19, %5
  ret void
}